Certificate:
    Data:
        Version: 3 (0x2)
        Serial Number: 13145803540924744380 (0xb66f46abc7e442bc)
    Signature Algorithm: sha256WithRSAEncryption
        Issuer: C=IS, ST=Reykjavik, L=Reykjavik, O=HR, OU=CS, CN=pa3/emailAddress=jorundur13@ru.is
        Validity
            Not Before: Oct 29 13:37:38 2015 GMT
            Not After : Oct 28 13:37:38 2016 GMT
        Subject: C=IS, ST=Reykjavik, L=Reykjavik, O=HR, OU=CS, CN=pa3/emailAddress=jorundur13@ru.is
        Subject Public Key Info:
            Public Key Algorithm: rsaEncryption
                Public-Key: (2048 bit)
                Modulus:
                    00:df:f9:ff:46:4e:6f:1d:27:d4:5a:1c:37:0f:5d:
                    52:e5:e9:d1:9e:bd:2d:98:77:ad:d4:11:24:e7:c6:
                    8f:4d:e0:c5:df:5e:ce:63:20:f5:55:f0:98:f9:cc:
                    85:81:44:aa:aa:9c:f8:c7:19:53:35:5d:19:f4:35:
                    5c:16:d0:63:8b:df:94:0c:ff:6f:62:81:9e:15:d2:
                    68:2d:8c:77:8a:dd:4e:f6:7b:f8:09:32:29:fa:db:
                    a3:0e:88:b2:fc:5c:b9:a7:7a:08:98:4d:2e:93:78:
                    8f:86:af:de:95:81:80:25:e6:4e:bb:fe:68:9a:eb:
                    6e:fb:6f:3c:33:2e:7d:a8:22:72:b6:8a:e5:6b:da:
                    22:55:05:6b:15:31:4a:ff:6a:fb:7d:4a:6e:a0:6c:
                    b0:c7:d2:53:3f:46:3c:48:ee:02:0c:e3:6c:4b:0a:
                    35:0d:6c:5b:f5:3c:b3:11:51:b2:83:29:20:35:24:
                    51:3d:d7:6e:12:5c:d1:e1:de:10:01:10:ed:6c:7e:
                    75:0c:2b:d4:90:c7:e3:24:bc:f0:d8:e7:39:e5:d1:
                    4d:f9:34:c1:b2:2a:c6:65:60:09:1e:9d:d8:2c:15:
                    7e:40:ee:6b:5b:62:ed:14:99:2c:b5:f3:d1:10:ae:
                    3e:82:ec:be:4e:e8:e0:55:cd:49:92:32:66:e7:12:
                    1a:71
                Exponent: 65537 (0x10001)
        X509v3 extensions:
            X509v3 Subject Key Identifier: 
                43:C5:03:A9:17:74:C9:E6:03:BD:06:57:79:EB:94:5C:46:97:F3:09
            X509v3 Authority Key Identifier: 
                keyid:43:C5:03:A9:17:74:C9:E6:03:BD:06:57:79:EB:94:5C:46:97:F3:09

            X509v3 Basic Constraints: 
                CA:TRUE
    Signature Algorithm: sha256WithRSAEncryption
         0d:d8:d7:b8:f9:72:aa:f4:35:9f:d0:77:07:7c:c6:2d:27:b1:
         99:79:8b:59:d2:97:13:4a:70:c2:bb:3f:03:cd:05:79:c5:a9:
         23:1f:3b:8e:94:c6:01:6b:79:4a:9b:7a:45:1e:2a:d8:86:5b:
         59:3a:e5:77:db:0f:c3:ba:f6:46:c2:8f:d8:4f:0b:19:b4:15:
         e1:65:22:1e:25:d6:3a:89:a8:a8:b6:14:8d:bd:68:40:25:13:
         c9:45:f3:be:9c:76:63:60:47:92:31:a0:08:a3:97:7d:2c:ef:
         c7:9c:90:ba:b8:a6:0d:a4:98:48:8e:45:a0:5d:5f:1d:40:ec:
         2c:33:25:c3:c8:e2:e1:0d:49:e5:6d:9b:f8:b1:cd:b2:6e:e6:
         e9:30:35:be:8d:f1:a7:8a:75:b4:98:3e:ef:f6:67:9f:f9:58:
         58:1a:00:06:06:8c:3e:08:4f:01:f2:4b:5b:16:b4:91:1c:fa:
         d4:79:d9:09:08:5a:d8:14:b3:79:a3:61:e7:7a:19:31:1d:43:
         a1:be:0b:45:e6:c6:5c:46:d0:58:43:c8:1e:58:ff:d8:a6:a1:
         69:8f:d0:12:35:b7:0a:fc:5f:19:05:bd:1f:79:df:60:71:4b:
         f0:99:15:68:76:28:62:20:c1:5a:84:cb:9a:9c:53:44:1e:61:
         f4:4d:1d:46
-----BEGIN CERTIFICATE-----
MIIDzzCCAregAwIBAgIJALZvRqvH5EK8MA0GCSqGSIb3DQEBCwUAMH4xCzAJBgNV
BAYTAklTMRIwEAYDVQQIDAlSZXlramF2aWsxEjAQBgNVBAcMCVJleWtqYXZpazEL
MAkGA1UECgwCSFIxCzAJBgNVBAsMAkNTMQwwCgYDVQQDDANwYTMxHzAdBgkqhkiG
9w0BCQEWEGpvcnVuZHVyMTNAcnUuaXMwHhcNMTUxMDI5MTMzNzM4WhcNMTYxMDI4
MTMzNzM4WjB+MQswCQYDVQQGEwJJUzESMBAGA1UECAwJUmV5a2phdmlrMRIwEAYD
VQQHDAlSZXlramF2aWsxCzAJBgNVBAoMAkhSMQswCQYDVQQLDAJDUzEMMAoGA1UE
AwwDcGEzMR8wHQYJKoZIhvcNAQkBFhBqb3J1bmR1cjEzQHJ1LmlzMIIBIjANBgkq
hkiG9w0BAQEFAAOCAQ8AMIIBCgKCAQEA3/n/Rk5vHSfUWhw3D11S5enRnr0tmHet
1BEk58aPTeDF317OYyD1VfCY+cyFgUSqqpz4xxlTNV0Z9DVcFtBji9+UDP9vYoGe
FdJoLYx3it1O9nv4CTIp+tujDoiy/Fy5p3oImE0uk3iPhq/elYGAJeZOu/5omutu
+288My59qCJytorla9oiVQVrFTFK/2r7fUpuoGywx9JTP0Y8SO4CDONsSwo1DWxb
9TyzEVGygykgNSRRPdduElzR4d4QARDtbH51DCvUkMfjJLzw2Oc55dFN+TTBsirG
ZWAJHp3YLBV+QO5rW2LtFJkstfPREK4+guy+TujgVc1JkjJm5xIacQIDAQABo1Aw
TjAdBgNVHQ4EFgQUQ8UDqRd0yeYDvQZXeeuUXEaX8wkwHwYDVR0jBBgwFoAUQ8UD
qRd0yeYDvQZXeeuUXEaX8wkwDAYDVR0TBAUwAwEB/zANBgkqhkiG9w0BAQsFAAOC
AQEADdjXuPlyqvQ1n9B3B3zGLSexmXmLWdKXE0pwwrs/A80FecWpIx87jpTGAWt5
Spt6RR4q2IZbWTrld9sPw7r2RsKP2E8LGbQV4WUiHiXWOomoqLYUjb1oQCUTyUXz
vpx2Y2BHkjGgCKOXfSzvx5yQurimDaSYSI5FoF1fHUDsLDMlw8ji4Q1J5W2b+LHN
sm7m6TA1vo3xp4p1tJg+7/Znn/lYWBoABgaMPghPAfJLWxa0kRz61HnZCQha2BSz
eaNh53oZMR1Dob4LRebGXEbQWEPIHlj/2KahaY/QEjW3CvxfGQW9H3nfYHFL8JkV
aHYoYiDBWoTLmpxTRB5h9E0dRg==
-----END CERTIFICATE-----
